target datalayout = "e-m:e-p270:32:32-p271:32:32-p272:64:64-i64:64-i128:128-f80:128-n8:16:32:64-S128"
target triple = "x86_64-pc-linux-gnu"

%"class.icu_77::UnicodeString" = type { %"class.icu_77::Replaceable", %"union.icu_77::UnicodeString::StackBufferOrFields" }
%"class.icu_77::Replaceable" = type { %"class.icu_77::UObject" }
%"class.icu_77::UObject" = type { ptr }
%"union.icu_77::UnicodeString::StackBufferOrFields" = type { %struct.anon.4, [32 x i8] }
%struct.anon.4 = type { i16, i32, i32, ptr }
%"class.icu_77::SimpleFormatter" = type { [8 x i8], %"class.icu_77::UnicodeString" }
%"class.icu_77::(anonymous namespace)::ContextualHandler" = type { %"class.icu_77::(anonymous namespace)::PatternHandler", ptr, %"class.icu_77::SimpleFormatter", %"class.icu_77::SimpleFormatter" }
%"class.icu_77::(anonymous namespace)::PatternHandler" = type { %"class.icu_77::UObject", %"class.icu_77::SimpleFormatter", %"class.icu_77::SimpleFormatter" }

; Function Attrs: mustprogress nounwind uwtable
define internal void @_ZN6icu_7712_GLOBAL__N_114PatternHandlerD2Ev(ptr noundef nonnull align 8 dereferenceable(152) %0) unnamed_addr #0 align 2 {
  %2 = alloca ptr, align 8
  store ptr %0, ptr %2, align 8, !tbaa !113
  %3 = load ptr, ptr %2, align 8
  store ptr getelementptr inbounds inrange(-16, 48) ({ [8 x ptr] }, ptr @_ZTVN6icu_7712_GLOBAL__N_114PatternHandlerE, i32 0, i32 0, i32 2), ptr %3, align 8, !tbaa !27
  %4 = getelementptr inbounds nuw %"class.icu_77::(anonymous namespace)::PatternHandler", ptr %3, i32 0, i32 2
  call void @_ZN6icu_7715SimpleFormatterD1Ev(ptr noundef nonnull align 8 dereferenceable(72) %4) #12
  %5 = getelementptr inbounds nuw %"class.icu_77::(anonymous namespace)::PatternHandler", ptr %3, i32 0, i32 1
  call void @_ZN6icu_7715SimpleFormatterD1Ev(ptr noundef nonnull align 8 dereferenceable(72) %5) #12
  call void @_ZN6icu_777UObjectD2Ev(ptr noundef nonnull align 8 dereferenceable(8) %3) #12
  ret void
}

; Function Attrs: mustprogress nounwind uwtable
define internal void @_ZN6icu_7712_GLOBAL__N_117ContextualHandlerD2Ev(ptr noundef nonnull align 8 dereferenceable(304) %0) unnamed_addr #0 align 2 {
  %2 = alloca ptr, align 8
  store ptr %0, ptr %2, align 8, !tbaa !132
  %3 = load ptr, ptr %2, align 8
  store ptr getelementptr inbounds inrange(-16, 48) ({ [8 x ptr] }, ptr @_ZTVN6icu_7712_GLOBAL__N_117ContextualHandlerE, i32 0, i32 0, i32 2), ptr %3, align 8, !tbaa !27
  %4 = getelementptr inbounds nuw %"class.icu_77::(anonymous namespace)::ContextualHandler", ptr %3, i32 0, i32 3
  call void @_ZN6icu_7715SimpleFormatterD1Ev(ptr noundef nonnull align 8 dereferenceable(72) %4) #12
  %5 = getelementptr inbounds nuw %"class.icu_77::(anonymous namespace)::ContextualHandler", ptr %3, i32 0, i32 2
  call void @_ZN6icu_7715SimpleFormatterD1Ev(ptr noundef nonnull align 8 dereferenceable(72) %5) #12
  call void @_ZN6icu_7712_GLOBAL__N_114PatternHandlerD2Ev(ptr noundef nonnull align 8 dereferenceable(152) %3) #12
  ret void
}

; Function Attrs: mustprogress nounwind uwtable
define internal void @_ZN6icu_7712_GLOBAL__N_117ContextualHandlerD0Ev(ptr noundef nonnull align 8 dereferenceable(304) %0) unnamed_addr #0 align 2 {
  %2 = alloca ptr, align 8
  store ptr %0, ptr %2, align 8, !tbaa !132
  %3 = load ptr, ptr %2, align 8
  call void @_ZN6icu_7712_GLOBAL__N_117ContextualHandlerD2Ev(ptr noundef nonnull align 8 dereferenceable(304) %3) #12
  call void @_ZN6icu_777UMemorydlEPv(ptr noundef %3) #12
  ret void
}